target datalayout = "e-m:e-p270:32:32-p271:32:32-p272:64:64-i64:64-f80:128-n8:16:32:64-S128"
target triple = "x86_64-pc-linux-gnu"

@.str = private unnamed_addr constant [3 x i8] c"%s\00", align 1
@.str.1 = private unnamed_addr constant [6 x i8] c"%c%c\0A\00", align 1
@.str.2 = private unnamed_addr constant [8 x i8] c"%c%c%c\0A\00", align 1
@.str.3 = private unnamed_addr constant [3 x i8] c"%c\00", align 1
@.str.4 = private unnamed_addr constant [4 x i8] c"%c\0A\00", align 1

; Function Attrs: noinline nounwind uwtable
define dso_local i32 @main() #0 {
  %1 = alloca i32, align 4
  %2 = alloca i32, align 4
  %3 = alloca i32, align 4
  %4 = alloca i32, align 4
  %5 = alloca i32, align 4
  %6 = alloca [500 x i32], align 16
  %7 = alloca [500 x i32], align 16
  %8 = alloca [500 x i8], align 16
  store i32 0, i32* %1, align 4
  store i32 0, i32* %5, align 4
  %9 = bitcast [500 x i32]* %6 to i8*
  call void @llvm.memset.p0i8.i64(i8* align 16 %9, i8 0, i64 2000, i1 false)
  %10 = bitcast [500 x i32]* %7 to i8*
  call void @llvm.memset.p0i8.i64(i8* align 16 %10, i8 0, i64 2000, i1 false)
  %11 = getelementptr inbounds [500 x i8], [500 x i8]* %8, i64 0, i64 0
  %12 = call i32 (i8*, ...) @__isoc99_scanf(i8* getelementptr inbounds ([3 x i8], [3 x i8]* @.str, i64 0, i64 0), i8* %11)
  store i32 0, i32* %2, align 4
  br label %13

13:                                               ; preds = %54, %0
  %14 = load i32, i32* %2, align 4
  %15 = sext i32 %14 to i64
  %16 = getelementptr inbounds [500 x i8], [500 x i8]* %8, i64 0, i64 %15
  %17 = load i8, i8* %16, align 1
  %18 = sext i8 %17 to i32
  %19 = icmp ne i32 %18, 0
  br i1 %19, label %20, label %57

20:                                               ; preds = %13
  %21 = load i32, i32* %2, align 4
  %22 = sext i32 %21 to i64
  %23 = getelementptr inbounds [500 x i8], [500 x i8]* %8, i64 0, i64 %22
  %24 = load i8, i8* %23, align 1
  %25 = sext i8 %24 to i32
  %26 = load i32, i32* %2, align 4
  %27 = add nsw i32 %26, 1
  %28 = sext i32 %27 to i64
  %29 = getelementptr inbounds [500 x i8], [500 x i8]* %8, i64 0, i64 %28
  %30 = load i8, i8* %29, align 1
  %31 = sext i8 %30 to i32
  %32 = icmp eq i32 %25, %31
  br i1 %32, label %33, label %53

33:                                               ; preds = %20
  %34 = load i32, i32* %2, align 4
  %35 = sext i32 %34 to i64
  %36 = getelementptr inbounds [500 x i8], [500 x i8]* %8, i64 0, i64 %35
  %37 = load i8, i8* %36, align 1
  %38 = sext i8 %37 to i32
  %39 = load i32, i32* %2, align 4
  %40 = add nsw i32 %39, 1
  %41 = sext i32 %40 to i64
  %42 = getelementptr inbounds [500 x i8], [500 x i8]* %8, i64 0, i64 %41
  %43 = load i8, i8* %42, align 1
  %44 = sext i8 %43 to i32
  %45 = call i32 (i8*, ...) @printf(i8* getelementptr inbounds ([6 x i8], [6 x i8]* @.str.1, i64 0, i64 0), i32 %38, i32 %44)
  %46 = load i32, i32* %2, align 4
  %47 = add nsw i32 %46, 1
  %48 = sext i32 %47 to i64
  %49 = getelementptr inbounds [500 x i32], [500 x i32]* %6, i64 0, i64 %48
  store i32 2, i32* %49, align 4
  %50 = load i32, i32* %2, align 4
  %51 = sext i32 %50 to i64
  %52 = getelementptr inbounds [500 x i32], [500 x i32]* %6, i64 0, i64 %51
  store i32 2, i32* %52, align 4
  br label %53

53:                                               ; preds = %33, %20
  br label %54

54:                                               ; preds = %53
  %55 = load i32, i32* %2, align 4
  %56 = add nsw i32 %55, 1
  store i32 %56, i32* %2, align 4
  br label %13

57:                                               ; preds = %13
  store i32 0, i32* %2, align 4
  br label %58

58:                                               ; preds = %102, %57
  %59 = load i32, i32* %2, align 4
  %60 = sext i32 %59 to i64
  %61 = getelementptr inbounds [500 x i8], [500 x i8]* %8, i64 0, i64 %60
  %62 = load i8, i8* %61, align 1
  %63 = sext i8 %62 to i32
  %64 = icmp ne i32 %63, 0
  br i1 %64, label %65, label %105

65:                                               ; preds = %58
  %66 = load i32, i32* %2, align 4
  %67 = sext i32 %66 to i64
  %68 = getelementptr inbounds [500 x i8], [500 x i8]* %8, i64 0, i64 %67
  %69 = load i8, i8* %68, align 1
  %70 = sext i8 %69 to i32
  %71 = load i32, i32* %2, align 4
  %72 = add nsw i32 %71, 2
  %73 = sext i32 %72 to i64
  %74 = getelementptr inbounds [500 x i8], [500 x i8]* %8, i64 0, i64 %73
  %75 = load i8, i8* %74, align 1
  %76 = sext i8 %75 to i32
  %77 = icmp eq i32 %70, %76
  br i1 %77, label %78, label %101

78:                                               ; preds = %65
  %79 = load i32, i32* %2, align 4
  %80 = sext i32 %79 to i64
  %81 = getelementptr inbounds [500 x i8], [500 x i8]* %8, i64 0, i64 %80
  %82 = load i8, i8* %81, align 1
  %83 = sext i8 %82 to i32
  %84 = load i32, i32* %2, align 4
  %85 = add nsw i32 %84, 1
  %86 = sext i32 %85 to i64
  %87 = getelementptr inbounds [500 x i8], [500 x i8]* %8, i64 0, i64 %86
  %88 = load i8, i8* %87, align 1
  %89 = sext i8 %88 to i32
  %90 = load i32, i32* %2, align 4
  %91 = add nsw i32 %90, 2
  %92 = sext i32 %91 to i64
  %93 = getelementptr inbounds [500 x i8], [500 x i8]* %8, i64 0, i64 %92
  %94 = load i8, i8* %93, align 1
  %95 = sext i8 %94 to i32
  %96 = call i32 (i8*, ...) @printf(i8* getelementptr inbounds ([8 x i8], [8 x i8]* @.str.2, i64 0, i64 0), i32 %83, i32 %89, i32 %95)
  %97 = load i32, i32* %2, align 4
  %98 = add nsw i32 %97, 1
  %99 = sext i32 %98 to i64
  %100 = getelementptr inbounds [500 x i32], [500 x i32]* %7, i64 0, i64 %99
  store i32 3, i32* %100, align 4
  br label %101

101:                                              ; preds = %78, %65
  br label %102

102:                                              ; preds = %101
  %103 = load i32, i32* %2, align 4
  %104 = add nsw i32 %103, 1
  store i32 %104, i32* %2, align 4
  br label %58

105:                                              ; preds = %58
  store i32 4, i32* %4, align 4
  br label %106

106:                                              ; preds = %290, %105
  %107 = load i32, i32* %4, align 4
  %108 = sext i32 %107 to i64
  %109 = getelementptr inbounds [500 x i8], [500 x i8]* %8, i64 0, i64 0
  %110 = call i64 @strlen(i8* %109) #4
  %111 = icmp ule i64 %108, %110
  br i1 %111, label %112, label %293

112:                                              ; preds = %106
  %113 = load i32, i32* %4, align 4
  %114 = srem i32 %113, 2
  %115 = icmp eq i32 %114, 0
  br i1 %115, label %116, label %210

116:                                              ; preds = %112
  store i32 0, i32* %2, align 4
  br label %117

117:                                              ; preds = %206, %116
  %118 = load i32, i32* %2, align 4
  %119 = sext i32 %118 to i64
  %120 = getelementptr inbounds [500 x i8], [500 x i8]* %8, i64 0, i64 %119
  %121 = load i8, i8* %120, align 1
  %122 = sext i8 %121 to i32
  %123 = icmp ne i32 %122, 0
  br i1 %123, label %124, label %209

124:                                              ; preds = %117
  %125 = load i32, i32* %2, align 4
  %126 = load i32, i32* %4, align 4
  %127 = sdiv i32 %126, 2
  %128 = add nsw i32 %125, %127
  %129 = sub nsw i32 %128, 1
  %130 = sext i32 %129 to i64
  %131 = getelementptr inbounds [500 x i32], [500 x i32]* %6, i64 0, i64 %130
  %132 = load i32, i32* %131, align 4
  %133 = load i32, i32* %4, align 4
  %134 = sub nsw i32 %133, 2
  %135 = icmp eq i32 %132, %134
  br i1 %135, label %136, label %205

136:                                              ; preds = %124
  %137 = load i32, i32* %2, align 4
  %138 = load i32, i32* %4, align 4
  %139 = sdiv i32 %138, 2
  %140 = add nsw i32 %137, %139
  %141 = sext i32 %140 to i64
  %142 = getelementptr inbounds [500 x i32], [500 x i32]* %6, i64 0, i64 %141
  %143 = load i32, i32* %142, align 4
  %144 = load i32, i32* %4, align 4
  %145 = sub nsw i32 %144, 2
  %146 = icmp eq i32 %143, %145
  br i1 %146, label %147, label %205

147:                                              ; preds = %136
  %148 = load i32, i32* %2, align 4
  %149 = load i32, i32* %4, align 4
  %150 = add nsw i32 %148, %149
  %151 = sub nsw i32 %150, 1
  %152 = sext i32 %151 to i64
  %153 = getelementptr inbounds [500 x i8], [500 x i8]* %8, i64 0, i64 %152
  %154 = load i8, i8* %153, align 1
  %155 = sext i8 %154 to i32
  %156 = load i32, i32* %2, align 4
  %157 = sext i32 %156 to i64
  %158 = getelementptr inbounds [500 x i8], [500 x i8]* %8, i64 0, i64 %157
  %159 = load i8, i8* %158, align 1
  %160 = sext i8 %159 to i32
  %161 = icmp eq i32 %155, %160
  br i1 %161, label %162, label %205

162:                                              ; preds = %147
  %163 = load i32, i32* %2, align 4
  store i32 %163, i32* %3, align 4
  br label %164

164:                                              ; preds = %178, %162
  %165 = load i32, i32* %3, align 4
  %166 = load i32, i32* %2, align 4
  %167 = load i32, i32* %4, align 4
  %168 = add nsw i32 %166, %167
  %169 = sub nsw i32 %168, 1
  %170 = icmp slt i32 %165, %169
  br i1 %170, label %171, label %181

171:                                              ; preds = %164
  %172 = load i32, i32* %3, align 4
  %173 = sext i32 %172 to i64
  %174 = getelementptr inbounds [500 x i8], [500 x i8]* %8, i64 0, i64 %173
  %175 = load i8, i8* %174, align 1
  %176 = sext i8 %175 to i32
  %177 = call i32 (i8*, ...) @printf(i8* getelementptr inbounds ([3 x i8], [3 x i8]* @.str.3, i64 0, i64 0), i32 %176)
  br label %178

178:                                              ; preds = %171
  %179 = load i32, i32* %3, align 4
  %180 = add nsw i32 %179, 1
  store i32 %180, i32* %3, align 4
  br label %164

181:                                              ; preds = %164
  %182 = load i32, i32* %2, align 4
  %183 = load i32, i32* %4, align 4
  %184 = add nsw i32 %182, %183
  %185 = sub nsw i32 %184, 1
  %186 = sext i32 %185 to i64
  %187 = getelementptr inbounds [500 x i8], [500 x i8]* %8, i64 0, i64 %186
  %188 = load i8, i8* %187, align 1
  %189 = sext i8 %188 to i32
  %190 = call i32 (i8*, ...) @printf(i8* getelementptr inbounds ([4 x i8], [4 x i8]* @.str.4, i64 0, i64 0), i32 %189)
  %191 = load i32, i32* %4, align 4
  %192 = load i32, i32* %2, align 4
  %193 = load i32, i32* %4, align 4
  %194 = sdiv i32 %193, 2
  %195 = add nsw i32 %192, %194
  %196 = sext i32 %195 to i64
  %197 = getelementptr inbounds [500 x i32], [500 x i32]* %6, i64 0, i64 %196
  store i32 %191, i32* %197, align 4
  %198 = load i32, i32* %2, align 4
  %199 = load i32, i32* %4, align 4
  %200 = sdiv i32 %199, 2
  %201 = add nsw i32 %198, %200
  %202 = sub nsw i32 %201, 1
  %203 = sext i32 %202 to i64
  %204 = getelementptr inbounds [500 x i32], [500 x i32]* %6, i64 0, i64 %203
  store i32 %191, i32* %204, align 4
  br label %205

205:                                              ; preds = %181, %147, %136, %124
  br label %206

206:                                              ; preds = %205
  %207 = load i32, i32* %2, align 4
  %208 = add nsw i32 %207, 1
  store i32 %208, i32* %2, align 4
  store i32 0, i32* %5, align 4
  br label %117

209:                                              ; preds = %117
  br label %210

210:                                              ; preds = %209, %112
  %211 = load i32, i32* %4, align 4
  %212 = srem i32 %211, 2
  %213 = icmp eq i32 %212, 1
  br i1 %213, label %214, label %289

214:                                              ; preds = %210
  store i32 0, i32* %2, align 4
  br label %215

215:                                              ; preds = %285, %214
  %216 = load i32, i32* %2, align 4
  %217 = sext i32 %216 to i64
  %218 = getelementptr inbounds [500 x i8], [500 x i8]* %8, i64 0, i64 %217
  %219 = load i8, i8* %218, align 1
  %220 = sext i8 %219 to i32
  %221 = icmp ne i32 %220, 0
  br i1 %221, label %222, label %288

222:                                              ; preds = %215
  %223 = load i32, i32* %2, align 4
  %224 = load i32, i32* %4, align 4
  %225 = sdiv i32 %224, 2
  %226 = add nsw i32 %223, %225
  %227 = sext i32 %226 to i64
  %228 = getelementptr inbounds [500 x i32], [500 x i32]* %7, i64 0, i64 %227
  %229 = load i32, i32* %228, align 4
  %230 = load i32, i32* %4, align 4
  %231 = sub nsw i32 %230, 2
  %232 = icmp eq i32 %229, %231
  br i1 %232, label %233, label %284

233:                                              ; preds = %222
  %234 = load i32, i32* %2, align 4
  %235 = load i32, i32* %4, align 4
  %236 = add nsw i32 %234, %235
  %237 = sub nsw i32 %236, 1
  %238 = sext i32 %237 to i64
  %239 = getelementptr inbounds [500 x i8], [500 x i8]* %8, i64 0, i64 %238
  %240 = load i8, i8* %239, align 1
  %241 = sext i8 %240 to i32
  %242 = load i32, i32* %2, align 4
  %243 = sext i32 %242 to i64
  %244 = getelementptr inbounds [500 x i8], [500 x i8]* %8, i64 0, i64 %243
  %245 = load i8, i8* %244, align 1
  %246 = sext i8 %245 to i32
  %247 = icmp eq i32 %241, %246
  br i1 %247, label %248, label %284

248:                                              ; preds = %233
  %249 = load i32, i32* %2, align 4
  store i32 %249, i32* %3, align 4
  br label %250

250:                                              ; preds = %264, %248
  %251 = load i32, i32* %3, align 4
  %252 = load i32, i32* %2, align 4
  %253 = load i32, i32* %4, align 4
  %254 = add nsw i32 %252, %253
  %255 = sub nsw i32 %254, 1
  %256 = icmp slt i32 %251, %255
  br i1 %256, label %257, label %267

257:                                              ; preds = %250
  %258 = load i32, i32* %3, align 4
  %259 = sext i32 %258 to i64
  %260 = getelementptr inbounds [500 x i8], [500 x i8]* %8, i64 0, i64 %259
  %261 = load i8, i8* %260, align 1
  %262 = sext i8 %261 to i32
  %263 = call i32 (i8*, ...) @printf(i8* getelementptr inbounds ([3 x i8], [3 x i8]* @.str.3, i64 0, i64 0), i32 %262)
  br label %264

264:                                              ; preds = %257
  %265 = load i32, i32* %3, align 4
  %266 = add nsw i32 %265, 1
  store i32 %266, i32* %3, align 4
  br label %250

267:                                              ; preds = %250
  %268 = load i32, i32* %2, align 4
  %269 = load i32, i32* %4, align 4
  %270 = add nsw i32 %268, %269
  %271 = sub nsw i32 %270, 1
  %272 = sext i32 %271 to i64
  %273 = getelementptr inbounds [500 x i8], [500 x i8]* %8, i64 0, i64 %272
  %274 = load i8, i8* %273, align 1
  %275 = sext i8 %274 to i32
  %276 = call i32 (i8*, ...) @printf(i8* getelementptr inbounds ([4 x i8], [4 x i8]* @.str.4, i64 0, i64 0), i32 %275)
  %277 = load i32, i32* %4, align 4
  %278 = load i32, i32* %2, align 4
  %279 = load i32, i32* %4, align 4
  %280 = sdiv i32 %279, 2
  %281 = add nsw i32 %278, %280
  %282 = sext i32 %281 to i64
  %283 = getelementptr inbounds [500 x i32], [500 x i32]* %7, i64 0, i64 %282
  store i32 %277, i32* %283, align 4
  br label %284

284:                                              ; preds = %267, %233, %222
  br label %285

285:                                              ; preds = %284
  %286 = load i32, i32* %2, align 4
  %287 = add nsw i32 %286, 1
  store i32 %287, i32* %2, align 4
  store i32 0, i32* %5, align 4
  br label %215

288:                                              ; preds = %215
  br label %289

289:                                              ; preds = %288, %210
  br label %290

290:                                              ; preds = %289
  %291 = load i32, i32* %4, align 4
  %292 = add nsw i32 %291, 1
  store i32 %292, i32* %4, align 4
  br label %106

293:                                              ; preds = %106
  ret i32 0
}